target datalayout = "e-m:e-p270:32:32-p271:32:32-p272:64:64-i64:64-f80:128-n8:16:32:64-S128"
target triple = "x86_64-pc-linux-gnu"

@.str = private unnamed_addr constant [3 x i8] c"%d\00", align 1
@.str.1 = private unnamed_addr constant [3 x i8] c"%s\00", align 1
@.str.2 = private unnamed_addr constant [2 x i8] c"\0A\00", align 1
@.str.3 = private unnamed_addr constant [3 x i8] c"%c\00", align 1
@.str.4 = private unnamed_addr constant [2 x i8] c"0\00", align 1

; Function Attrs: noinline nounwind uwtable
define dso_local void @main() #0 {
  %1 = alloca [100 x [100 x i8]], align 16
  %2 = alloca [100 x [100 x i8]], align 16
  %3 = alloca i32, align 4
  %4 = alloca i32, align 4
  %5 = alloca i32, align 4
  %6 = call i32 (i8*, ...) @__isoc99_scanf(i8* getelementptr inbounds ([3 x i8], [3 x i8]* @.str, i64 0, i64 0), i32* %5)
  store i32 1, i32* %3, align 4
  br label %7

7:                                                ; preds = %22, %0
  %8 = load i32, i32* %3, align 4
  %9 = load i32, i32* %5, align 4
  %10 = icmp sle i32 %8, %9
  br i1 %10, label %11, label %25

11:                                               ; preds = %7
  %12 = load i32, i32* %3, align 4
  %13 = sext i32 %12 to i64
  %14 = getelementptr inbounds [100 x [100 x i8]], [100 x [100 x i8]]* %1, i64 0, i64 %13
  %15 = getelementptr inbounds [100 x i8], [100 x i8]* %14, i64 0, i64 0
  %16 = call i32 (i8*, ...) @__isoc99_scanf(i8* getelementptr inbounds ([3 x i8], [3 x i8]* @.str.1, i64 0, i64 0), i8* %15)
  %17 = load i32, i32* %3, align 4
  %18 = sext i32 %17 to i64
  %19 = getelementptr inbounds [100 x [100 x i8]], [100 x [100 x i8]]* %2, i64 0, i64 %18
  %20 = getelementptr inbounds [100 x i8], [100 x i8]* %19, i64 0, i64 0
  %21 = call i32 (i8*, ...) @__isoc99_scanf(i8* getelementptr inbounds ([3 x i8], [3 x i8]* @.str.1, i64 0, i64 0), i8* %20)
  br label %22

22:                                               ; preds = %11
  %23 = load i32, i32* %3, align 4
  %24 = add nsw i32 %23, 1
  store i32 %24, i32* %3, align 4
  br label %7

25:                                               ; preds = %7
  %26 = call i32 (i8*, ...) @printf(i8* getelementptr inbounds ([2 x i8], [2 x i8]* @.str.2, i64 0, i64 0))
  store i32 1, i32* %3, align 4
  br label %27

27:                                               ; preds = %40, %25
  %28 = load i32, i32* %3, align 4
  %29 = load i32, i32* %5, align 4
  %30 = icmp sle i32 %28, %29
  br i1 %30, label %31, label %43

31:                                               ; preds = %27
  %32 = load i32, i32* %3, align 4
  %33 = sext i32 %32 to i64
  %34 = getelementptr inbounds [100 x [100 x i8]], [100 x [100 x i8]]* %1, i64 0, i64 %33
  %35 = getelementptr inbounds [100 x i8], [100 x i8]* %34, i64 0, i64 0
  %36 = load i32, i32* %3, align 4
  %37 = sext i32 %36 to i64
  %38 = getelementptr inbounds [100 x [100 x i8]], [100 x [100 x i8]]* %2, i64 0, i64 %37
  %39 = getelementptr inbounds [100 x i8], [100 x i8]* %38, i64 0, i64 0
  call void @minus(i8* %35, i8* %39)
  br label %40

40:                                               ; preds = %31
  %41 = load i32, i32* %3, align 4
  %42 = add nsw i32 %41, 1
  store i32 %42, i32* %3, align 4
  br label %27

43:                                               ; preds = %27
  ret void
}

; Function Attrs: noinline nounwind uwtable
define dso_local void @minus(i8* %0, i8* %1) #0 {
  %3 = alloca i8*, align 8
  %4 = alloca i8*, align 8
  %5 = alloca i32, align 4
  %6 = alloca i32, align 4
  %7 = alloca i32, align 4
  %8 = alloca i32, align 4
  %9 = alloca [1000 x i8], align 16
  store i8* %0, i8** %3, align 8
  store i8* %1, i8** %4, align 8
  %10 = load i8*, i8** %3, align 8
  %11 = call i64 @strlen(i8* %10) #3
  %12 = trunc i64 %11 to i32
  store i32 %12, i32* %7, align 4
  %13 = load i8*, i8** %4, align 8
  %14 = call i64 @strlen(i8* %13) #3
  %15 = trunc i64 %14 to i32
  store i32 %15, i32* %8, align 4
  %16 = load i32, i32* %7, align 4
  %17 = sub nsw i32 %16, 1
  store i32 %17, i32* %5, align 4
  %18 = load i32, i32* %8, align 4
  %19 = sub nsw i32 %18, 1
  store i32 %19, i32* %6, align 4
  br label %20

20:                                               ; preds = %110, %2
  %21 = load i32, i32* %5, align 4
  %22 = load i32, i32* %7, align 4
  %23 = load i32, i32* %8, align 4
  %24 = sub nsw i32 %22, %23
  %25 = add nsw i32 %24, 1
  %26 = icmp sge i32 %21, %25
  br i1 %26, label %27, label %115

27:                                               ; preds = %20
  %28 = load i8*, i8** %3, align 8
  %29 = load i32, i32* %5, align 4
  %30 = sext i32 %29 to i64
  %31 = getelementptr inbounds i8, i8* %28, i64 %30
  %32 = load i8, i8* %31, align 1
  %33 = sext i8 %32 to i32
  %34 = load i8*, i8** %4, align 8
  %35 = load i32, i32* %6, align 4
  %36 = sext i32 %35 to i64
  %37 = getelementptr inbounds i8, i8* %34, i64 %36
  %38 = load i8, i8* %37, align 1
  %39 = sext i8 %38 to i32
  %40 = icmp sge i32 %33, %39
  br i1 %40, label %41, label %60

41:                                               ; preds = %27
  %42 = load i8*, i8** %3, align 8
  %43 = load i32, i32* %5, align 4
  %44 = sext i32 %43 to i64
  %45 = getelementptr inbounds i8, i8* %42, i64 %44
  %46 = load i8, i8* %45, align 1
  %47 = sext i8 %46 to i32
  %48 = load i8*, i8** %4, align 8
  %49 = load i32, i32* %6, align 4
  %50 = sext i32 %49 to i64
  %51 = getelementptr inbounds i8, i8* %48, i64 %50
  %52 = load i8, i8* %51, align 1
  %53 = sext i8 %52 to i32
  %54 = sub nsw i32 %47, %53
  %55 = add nsw i32 %54, 48
  %56 = trunc i32 %55 to i8
  %57 = load i32, i32* %5, align 4
  %58 = sext i32 %57 to i64
  %59 = getelementptr inbounds [1000 x i8], [1000 x i8]* %9, i64 0, i64 %58
  store i8 %56, i8* %59, align 1
  br label %109

60:                                               ; preds = %27
  %61 = load i8*, i8** %3, align 8
  %62 = load i32, i32* %5, align 4
  %63 = sext i32 %62 to i64
  %64 = getelementptr inbounds i8, i8* %61, i64 %63
  %65 = load i8, i8* %64, align 1
  %66 = sext i8 %65 to i32
  %67 = load i8*, i8** %4, align 8
  %68 = load i32, i32* %6, align 4
  %69 = sext i32 %68 to i64
  %70 = getelementptr inbounds i8, i8* %67, i64 %69
  %71 = load i8, i8* %70, align 1
  %72 = sext i8 %71 to i32
  %73 = icmp slt i32 %66, %72
  br i1 %73, label %74, label %108

74:                                               ; preds = %60
  %75 = load i8*, i8** %3, align 8
  %76 = load i32, i32* %5, align 4
  %77 = sext i32 %76 to i64
  %78 = getelementptr inbounds i8, i8* %75, i64 %77
  %79 = load i8, i8* %78, align 1
  %80 = sext i8 %79 to i32
  %81 = add nsw i32 %80, 10
  %82 = load i8*, i8** %4, align 8
  %83 = load i32, i32* %6, align 4
  %84 = sext i32 %83 to i64
  %85 = getelementptr inbounds i8, i8* %82, i64 %84
  %86 = load i8, i8* %85, align 1
  %87 = sext i8 %86 to i32
  %88 = sub nsw i32 %81, %87
  %89 = add nsw i32 %88, 48
  %90 = trunc i32 %89 to i8
  %91 = load i32, i32* %5, align 4
  %92 = sext i32 %91 to i64
  %93 = getelementptr inbounds [1000 x i8], [1000 x i8]* %9, i64 0, i64 %92
  store i8 %90, i8* %93, align 1
  %94 = load i8*, i8** %3, align 8
  %95 = load i32, i32* %5, align 4
  %96 = sub nsw i32 %95, 1
  %97 = sext i32 %96 to i64
  %98 = getelementptr inbounds i8, i8* %94, i64 %97
  %99 = load i8, i8* %98, align 1
  %100 = sext i8 %99 to i32
  %101 = sub nsw i32 %100, 1
  %102 = trunc i32 %101 to i8
  %103 = load i8*, i8** %3, align 8
  %104 = load i32, i32* %5, align 4
  %105 = sub nsw i32 %104, 1
  %106 = sext i32 %105 to i64
  %107 = getelementptr inbounds i8, i8* %103, i64 %106
  store i8 %102, i8* %107, align 1
  br label %108

108:                                              ; preds = %74, %60
  br label %109

109:                                              ; preds = %108, %41
  br label %110

110:                                              ; preds = %109
  %111 = load i32, i32* %5, align 4
  %112 = add nsw i32 %111, -1
  store i32 %112, i32* %5, align 4
  %113 = load i32, i32* %6, align 4
  %114 = add nsw i32 %113, -1
  store i32 %114, i32* %6, align 4
  br label %20

115:                                              ; preds = %20
  %116 = load i8*, i8** %3, align 8
  %117 = load i32, i32* %7, align 4
  %118 = load i32, i32* %8, align 4
  %119 = sub nsw i32 %117, %118
  %120 = sext i32 %119 to i64
  %121 = getelementptr inbounds i8, i8* %116, i64 %120
  %122 = load i8, i8* %121, align 1
  %123 = sext i8 %122 to i32
  %124 = load i8*, i8** %4, align 8
  %125 = getelementptr inbounds i8, i8* %124, i64 0
  %126 = load i8, i8* %125, align 1
  %127 = sext i8 %126 to i32
  %128 = icmp sge i32 %123, %127
  br i1 %128, label %129, label %198

129:                                              ; preds = %115
  %130 = load i8*, i8** %3, align 8
  %131 = load i32, i32* %7, align 4
  %132 = load i32, i32* %8, align 4
  %133 = sub nsw i32 %131, %132
  %134 = sext i32 %133 to i64
  %135 = getelementptr inbounds i8, i8* %130, i64 %134
  %136 = load i8, i8* %135, align 1
  %137 = sext i8 %136 to i32
  %138 = load i8*, i8** %4, align 8
  %139 = getelementptr inbounds i8, i8* %138, i64 0
  %140 = load i8, i8* %139, align 1
  %141 = sext i8 %140 to i32
  %142 = sub nsw i32 %137, %141
  %143 = add nsw i32 %142, 48
  %144 = trunc i32 %143 to i8
  %145 = load i32, i32* %7, align 4
  %146 = load i32, i32* %8, align 4
  %147 = sub nsw i32 %145, %146
  %148 = sext i32 %147 to i64
  %149 = getelementptr inbounds [1000 x i8], [1000 x i8]* %9, i64 0, i64 %148
  store i8 %144, i8* %149, align 1
  store i32 0, i32* %5, align 4
  br label %150

150:                                              ; preds = %165, %129
  %151 = load i32, i32* %5, align 4
  %152 = load i32, i32* %7, align 4
  %153 = load i32, i32* %8, align 4
  %154 = sub nsw i32 %152, %153
  %155 = sub nsw i32 %154, 1
  %156 = icmp sle i32 %151, %155
  br i1 %156, label %157, label %168

157:                                              ; preds = %150
  %158 = load i8*, i8** %3, align 8
  %159 = load i32, i32* %5, align 4
  %160 = sext i32 %159 to i64
  %161 = getelementptr inbounds i8, i8* %158, i64 %160
  %162 = load i8, i8* %161, align 1
  %163 = sext i8 %162 to i32
  %164 = call i32 (i8*, ...) @printf(i8* getelementptr inbounds ([3 x i8], [3 x i8]* @.str.3, i64 0, i64 0), i32 %163)
  br label %165

165:                                              ; preds = %157
  %166 = load i32, i32* %5, align 4
  %167 = add nsw i32 %166, 1
  store i32 %167, i32* %5, align 4
  br label %150

168:                                              ; preds = %150
  %169 = load i32, i32* %7, align 4
  %170 = load i32, i32* %8, align 4
  %171 = sub nsw i32 %169, %170
  store i32 %171, i32* %5, align 4
  br label %172

172:                                              ; preds = %194, %168
  %173 = load i32, i32* %5, align 4
  %174 = load i32, i32* %7, align 4
  %175 = sub nsw i32 %174, 1
  %176 = icmp sle i32 %173, %175
  br i1 %176, label %177, label %197

177:                                              ; preds = %172
  %178 = load i32, i32* %5, align 4
  %179 = sext i32 %178 to i64
  %180 = getelementptr inbounds [1000 x i8], [1000 x i8]* %9, i64 0, i64 %179
  %181 = load i8, i8* %180, align 1
  %182 = sext i8 %181 to i32
  %183 = icmp eq i32 %182, 0
  br i1 %183, label %184, label %186

184:                                              ; preds = %177
  %185 = call i32 (i8*, ...) @printf(i8* getelementptr inbounds ([2 x i8], [2 x i8]* @.str.4, i64 0, i64 0))
  br label %193

186:                                              ; preds = %177
  %187 = load i32, i32* %5, align 4
  %188 = sext i32 %187 to i64
  %189 = getelementptr inbounds [1000 x i8], [1000 x i8]* %9, i64 0, i64 %188
  %190 = load i8, i8* %189, align 1
  %191 = sext i8 %190 to i32
  %192 = call i32 (i8*, ...) @printf(i8* getelementptr inbounds ([3 x i8], [3 x i8]* @.str.3, i64 0, i64 0), i32 %191)
  br label %193

193:                                              ; preds = %186, %184
  br label %194

194:                                              ; preds = %193
  %195 = load i32, i32* %5, align 4
  %196 = add nsw i32 %195, 1
  store i32 %196, i32* %5, align 4
  br label %172

197:                                              ; preds = %172
  br label %286

198:                                              ; preds = %115
  %199 = load i8*, i8** %3, align 8
  %200 = load i32, i32* %7, align 4
  %201 = load i32, i32* %8, align 4
  %202 = sub nsw i32 %200, %201
  %203 = sext i32 %202 to i64
  %204 = getelementptr inbounds i8, i8* %199, i64 %203
  %205 = load i8, i8* %204, align 1
  %206 = sext i8 %205 to i32
  %207 = add nsw i32 %206, 10
  %208 = load i8*, i8** %4, align 8
  %209 = getelementptr inbounds i8, i8* %208, i64 0
  %210 = load i8, i8* %209, align 1
  %211 = sext i8 %210 to i32
  %212 = sub nsw i32 %207, %211
  %213 = add nsw i32 %212, 48
  %214 = trunc i32 %213 to i8
  %215 = load i32, i32* %7, align 4
  %216 = load i32, i32* %8, align 4
  %217 = sub nsw i32 %215, %216
  %218 = sext i32 %217 to i64
  %219 = getelementptr inbounds [1000 x i8], [1000 x i8]* %9, i64 0, i64 %218
  store i8 %214, i8* %219, align 1
  %220 = load i8*, i8** %3, align 8
  %221 = load i32, i32* %7, align 4
  %222 = load i32, i32* %8, align 4
  %223 = sub nsw i32 %221, %222
  %224 = sub nsw i32 %223, 1
  %225 = sext i32 %224 to i64
  %226 = getelementptr inbounds i8, i8* %220, i64 %225
  %227 = load i8, i8* %226, align 1
  %228 = sext i8 %227 to i32
  %229 = sub nsw i32 %228, 1
  %230 = trunc i32 %229 to i8
  %231 = load i8*, i8** %3, align 8
  %232 = load i32, i32* %7, align 4
  %233 = load i32, i32* %8, align 4
  %234 = sub nsw i32 %232, %233
  %235 = sub nsw i32 %234, 1
  %236 = sext i32 %235 to i64
  %237 = getelementptr inbounds i8, i8* %231, i64 %236
  store i8 %230, i8* %237, align 1
  store i32 0, i32* %5, align 4
  br label %238

238:                                              ; preds = %253, %198
  %239 = load i32, i32* %5, align 4
  %240 = load i32, i32* %7, align 4
  %241 = load i32, i32* %8, align 4
  %242 = sub nsw i32 %240, %241
  %243 = sub nsw i32 %242, 1
  %244 = icmp sle i32 %239, %243
  br i1 %244, label %245, label %256

245:                                              ; preds = %238
  %246 = load i8*, i8** %3, align 8
  %247 = load i32, i32* %5, align 4
  %248 = sext i32 %247 to i64
  %249 = getelementptr inbounds i8, i8* %246, i64 %248
  %250 = load i8, i8* %249, align 1
  %251 = sext i8 %250 to i32
  %252 = call i32 (i8*, ...) @printf(i8* getelementptr inbounds ([3 x i8], [3 x i8]* @.str.3, i64 0, i64 0), i32 %251)
  br label %253

253:                                              ; preds = %245
  %254 = load i32, i32* %5, align 4
  %255 = add nsw i32 %254, 1
  store i32 %255, i32* %5, align 4
  br label %238

256:                                              ; preds = %238
  %257 = load i32, i32* %7, align 4
  %258 = load i32, i32* %8, align 4
  %259 = sub nsw i32 %257, %258
  store i32 %259, i32* %5, align 4
  br label %260

260:                                              ; preds = %282, %256
  %261 = load i32, i32* %5, align 4
  %262 = load i32, i32* %7, align 4
  %263 = sub nsw i32 %262, 1
  %264 = icmp sle i32 %261, %263
  br i1 %264, label %265, label %285

265:                                              ; preds = %260
  %266 = load i32, i32* %5, align 4
  %267 = sext i32 %266 to i64
  %268 = getelementptr inbounds [1000 x i8], [1000 x i8]* %9, i64 0, i64 %267
  %269 = load i8, i8* %268, align 1
  %270 = sext i8 %269 to i32
  %271 = icmp eq i32 %270, 0
  br i1 %271, label %272, label %274

272:                                              ; preds = %265
  %273 = call i32 (i8*, ...) @printf(i8* getelementptr inbounds ([2 x i8], [2 x i8]* @.str.4, i64 0, i64 0))
  br label %281

274:                                              ; preds = %265
  %275 = load i32, i32* %5, align 4
  %276 = sext i32 %275 to i64
  %277 = getelementptr inbounds [1000 x i8], [1000 x i8]* %9, i64 0, i64 %276
  %278 = load i8, i8* %277, align 1
  %279 = sext i8 %278 to i32
  %280 = call i32 (i8*, ...) @printf(i8* getelementptr inbounds ([3 x i8], [3 x i8]* @.str.3, i64 0, i64 0), i32 %279)
  br label %281

281:                                              ; preds = %274, %272
  br label %282

282:                                              ; preds = %281
  %283 = load i32, i32* %5, align 4
  %284 = add nsw i32 %283, 1
  store i32 %284, i32* %5, align 4
  br label %260

285:                                              ; preds = %260
  br label %286

286:                                              ; preds = %285, %197
  %287 = call i32 (i8*, ...) @printf(i8* getelementptr inbounds ([2 x i8], [2 x i8]* @.str.2, i64 0, i64 0))
  ret void
}